target datalayout = "e-m:e-p270:32:32-p271:32:32-p272:64:64-i64:64-i128:128-f80:128-n8:16:32:64-S128"
target triple = "x86_64-pc-linux-gnu"

%struct.mysql_conn_data = type { i16, i16, i16, i16, ptr, i8, i32, i32, i8, i8, i8, i8, i32, i32, ptr, ptr, i32, i32, i32, i64, %struct.my_metadata_list_t, i32, i32 }
%struct.my_metadata_list_t = type { i16, ptr, ptr, ptr }
%struct._packet_info = type { ptr, ptr, i32, i32, %struct.nstime_t, %struct.nstime_t, %struct.nstime_t, i8, ptr, ptr, ptr, ptr, %struct._address, %struct._address, %struct._address, %struct._address, %struct._address, %struct._address, i32, ptr, i8, [3 x i8], %struct.anon, i32, i32, i32, i32, ptr, i8, ptr, ptr, i16, i16, i32, i32, i16, i32, i32, ptr, ptr, ptr, i8, i8, i16, i16, i16, i32, i16, i16, ptr, ptr, ptr, ptr, ptr, i32, i32 }
%struct.nstime_t = type { i64, i32 }
%struct._address = type { i32, i32, ptr, ptr }
%struct.anon = type { i8, [3 x i8] }

@proto_mysql = internal global i32 0, align 4
@mysql_desegment = internal global i8 1, align 1

; Function Attrs: null_pointer_is_valid sspstrong uwtable
define internal i32 @dissect_mysql(ptr noundef %0, ptr noundef %1, ptr noundef %2, ptr noundef %3) #0 {
  %5 = alloca ptr, align 8
  %6 = alloca ptr, align 8
  %7 = alloca ptr, align 8
  %8 = alloca ptr, align 8
  %9 = alloca ptr, align 8
  %10 = alloca ptr, align 8
  store ptr %0, ptr %5, align 8
  store ptr %1, ptr %6, align 8
  store ptr %2, ptr %7, align 8
  store ptr %3, ptr %8, align 8
  call void @llvm.lifetime.start.p0(i64 8, ptr %9) #11
  call void @llvm.lifetime.start.p0(i64 8, ptr %10) #11
  store ptr null, ptr %10, align 8
  %11 = load ptr, ptr %6, align 8
  %12 = call ptr @find_conversation_pinfo(ptr noundef %11, i32 noundef 0)
  store ptr %12, ptr %9, align 8
  %13 = load ptr, ptr %9, align 8
  %14 = icmp ne ptr %13, null
  br i1 %14, label %15, label %19

15:                                               ; preds = %4
  %16 = load ptr, ptr %9, align 8
  %17 = load i32, ptr @proto_mysql, align 4
  %18 = call ptr @conversation_get_proto_data(ptr noundef %16, i32 noundef %17)
  store ptr %18, ptr %10, align 8
  br label %19

19:                                               ; preds = %15, %4
  %20 = load ptr, ptr %10, align 8
  %21 = icmp ne ptr %20, null
  br i1 %21, label %22, label %43

22:                                               ; preds = %19
  %23 = load ptr, ptr %10, align 8
  %24 = getelementptr inbounds nuw %struct.mysql_conn_data, ptr %23, i32 0, i32 8
  %25 = load i8, ptr %24, align 4
  %26 = zext i8 %25 to i32
  %27 = icmp eq i32 %26, 2
  br i1 %27, label %28, label %43

28:                                               ; preds = %22
  %29 = load ptr, ptr %6, align 8
  %30 = getelementptr inbounds nuw %struct._packet_info, ptr %29, i32 0, i32 3
  %31 = load i32, ptr %30, align 4
  %32 = load ptr, ptr %10, align 8
  %33 = getelementptr inbounds nuw %struct.mysql_conn_data, ptr %32, i32 0, i32 7
  %34 = load i32, ptr %33, align 8
  %35 = icmp ugt i32 %31, %34
  br i1 %35, label %36, label %43

36:                                               ; preds = %28
  %37 = load ptr, ptr %5, align 8
  %38 = load ptr, ptr %6, align 8
  %39 = load ptr, ptr %7, align 8
  %40 = load i8, ptr @mysql_desegment, align 1, !range !6, !noundef !7
  %41 = trunc i8 %40 to i1
  %42 = load ptr, ptr %8, align 8
  call void @tcp_dissect_pdus(ptr noundef %37, ptr noundef %38, ptr noundef %39, i1 noundef zeroext %41, i32 noundef 7, ptr noundef @get_mysql_compressed_pdu_len, ptr noundef @dissect_mysql_compressed_pdu, ptr noundef %42)
  br label %50

43:                                               ; preds = %28, %22, %19
  %44 = load ptr, ptr %5, align 8
  %45 = load ptr, ptr %6, align 8
  %46 = load ptr, ptr %7, align 8
  %47 = load i8, ptr @mysql_desegment, align 1, !range !6, !noundef !7
  %48 = trunc i8 %47 to i1
  %49 = load ptr, ptr %8, align 8
  call void @tcp_dissect_pdus(ptr noundef %44, ptr noundef %45, ptr noundef %46, i1 noundef zeroext %48, i32 noundef 4, ptr noundef @get_mysql_pdu_len, ptr noundef @dissect_mysql_pdu, ptr noundef %49)
  br label %50

50:                                               ; preds = %43, %36
  %51 = load ptr, ptr %5, align 8
  %52 = call i32 @tvb_reported_length(ptr noundef %51)
  call void @llvm.lifetime.end.p0(i64 8, ptr %10) #11
  call void @llvm.lifetime.end.p0(i64 8, ptr %9) #11
  ret i32 %52
}