; Function Attrs: null_pointer_is_valid sspstrong uwtable
define internal i32 @dissect_mysql(ptr noundef %0, ptr noundef %1, ptr noundef %2, ptr noundef %3) #0 {
  %5 = tail call ptr @find_conversation_pinfo(ptr noundef %1, i32 noundef 0)
  %.not = icmp eq ptr %5, null
  br i1 %.not, label %.thread, label %6

6:                                                ; preds = %4
  %7 = load i32, ptr @proto_mysql, align 4
  %8 = tail call ptr @conversation_get_proto_data(ptr noundef nonnull %5, i32 noundef %7)
  %.not17 = icmp eq ptr %8, null
  br i1 %.not17, label %.thread, label %9

9:                                                ; preds = %6
  %10 = getelementptr inbounds nuw i8, ptr %8, i64 28
  %11 = load i8, ptr %10, align 4
  %12 = icmp eq i8 %11, 2
  br i1 %12, label %13, label %.thread

13:                                               ; preds = %9
  %14 = getelementptr inbounds nuw i8, ptr %1, i64 20
  %15 = load i32, ptr %14, align 4
  %16 = getelementptr inbounds nuw i8, ptr %8, i64 24
  %17 = load i32, ptr %16, align 8
  %18 = icmp ugt i32 %15, %17
  br i1 %18, label %19, label %.thread

19:                                               ; preds = %13
  %20 = load i8, ptr @mysql_desegment, align 1, !range !6, !noundef !7
  %21 = trunc nuw i8 %20 to i1
  tail call void @tcp_dissect_pdus(ptr noundef %0, ptr noundef %1, ptr noundef %2, i1 noundef zeroext %21, i32 noundef 7, ptr noundef nonnull @get_mysql_compressed_pdu_len, ptr noundef nonnull @dissect_mysql_compressed_pdu, ptr noundef %3)
  br label %24

.thread:                                          ; preds = %4, %13, %9, %6
  %22 = load i8, ptr @mysql_desegment, align 1, !range !6, !noundef !7
  %23 = trunc nuw i8 %22 to i1
  tail call void @tcp_dissect_pdus(ptr noundef %0, ptr noundef %1, ptr noundef %2, i1 noundef zeroext %23, i32 noundef 4, ptr noundef nonnull @get_mysql_pdu_len, ptr noundef nonnull @dissect_mysql_pdu, ptr noundef %3)
  br label %24

24:                                               ; preds = %.thread, %19
  %25 = tail call i32 @tvb_reported_length(ptr noundef %0)
  ret i32 %25
}